(lp1
S'green building'
p2
aS'community recreation facilities'
p3
aS'swimming pool'
p4
aS'multi-level'
p5
aS'shares ok'
p6
aS'sauna'
p7
aS'package room'
p8
aS'duplex'
p9
aS'childrens playroom'
p10
aS'highrise'
p11
aS'guarantors accepted'
p12
aS'post-war'
p13
aS'all utilities included'
p14
aS'valet'
p15
aS'cable/satellite tv'
p16
aS'business center'
p17
aS'lowrise'
p18
aS'flex-2'
p19
aS'live/work'
p20
aS'midrise'
p21
a.