(lp1
S'actual apt. photos'
p2
aS'attended lobby'
p3
aS'skylight'
p4
aS'business center'
p5
aS'package room'
p6
aS'sublet'
p7
aS'virtual doorman'
p8
aS'community recreation facilities'
p9
aS'highrise'
p10
aS'green building'
p11
aS'pets on approval'
p12
aS'childrens playroom'
p13
aS'post-war'
p14
aS'all utilities included'
p15
aS'live/work'
p16
aS'guarantors accepted'
p17
aS'shares ok'
p18
aS'midrise'
p19
aS'cable/satellite tv'
p20
aS'flex-2'
p21
a.