(lp1
Velevator
p2
aVhardwood floors
p3
aVdoorman
p4
aVdishwasher
p5
aVlaundry in building
p6
aVno fee
p7
aVfitness center
p8
aVpre-war
p9
aVroof deck
p10
aVoutdoor space
p11
aVdining room
p12
aVhigh speed internet
p13
aVbalcony
p14
aVswimming pool
p15
aVnew construction
p16
aVterrace
p17
aVexclusive
p18
aVloft
p19
aVgarden/patio
p20
aVwheelchair access
p21
aVfireplace
p22
aVsimplex
p23
aVlowrise
p24
aVgarage
p25
aVreduced fee
p26
aVfurnished
p27
aVmulti-level
p28
aVhigh ceilings
p29
aVprivate outdoor space
p30
aVparking space
p31
aVlive in super
p32
aVrenovated
p33
aVgreen building
p34
aVstorage
p35
aVstainless steel appliances
p36
aVlight
p37
aVgranite kitchen
p38
aVbike room
p39
aVexposed brick
p40
aVmarble bath
p41
aVpets on approval
p42
aVwalk in closet(s)
p43
aVvalet
p44
aVsubway
p45
aVresidents lounge
p46
aVhighrise
p47
aVshort term allowed
p48
aVchildrens playroom
p49
aVno pets
p50
aVduplex
p51
aVactual apt. photos
p52
aVcentral a/c
p53
aVview
p54
aVlive/work
p55
aVvirtual doorman
p56
aVsauna
p57
aVmicrowave
p58
aVshares ok
p59
aVpost-war
p60
aVbrownstone
p61
aVbusiness center
p62
aVsublet
p63
aVmidrise
p64
aVpet friendly
p65
aVguarantors accepted
p66
aVattended lobby
p67
aVpackage room
p68
aVvideo intercom
p69
aVcommunity recreation facilities
p70
aVskylight
p71
aVflex-2
p72
aVcable/satellite tv
p73
aVall utilities included
p74
a.