cpandas.indexes.base
_new_Index
p1
(cpandas.indexes.base
Index
p2
(dp3
S'data'
p4
cnumpy.core.multiarray
_reconstruct
p5
(cnumpy
ndarray
p6
(I0
tS'b'
tRp7
(I1
(I87
tcnumpy
dtype
p8
(S'O8'
I0
I1
tRp9
(I3
S'|'
NNNI-1
I-1
I63
tbI00
(lp10
S'bathrooms'
p11
aS'bedrooms'
p12
aS'price'
p13
aS'elevator'
p14
aS'hardwood floors'
p15
aS'cats allowed'
p16
aS'dogs allowed'
p17
aS'doorman'
p18
aS'dishwasher'
p19
aS'laundry in building'
p20
aS'no fee'
p21
aS'fitness center'
p22
aS'laundry in unit'
p23
aS'pre-war'
p24
aS'roof deck'
p25
aS'outdoor space'
p26
aS'dining room'
p27
aS'high speed internet'
p28
aS'balcony'
p29
aS'swimming pool'
p30
aS'new construction'
p31
aS'terrace'
p32
aS'exclusive'
p33
aS'loft'
p34
aS'garden/patio'
p35
aS'common outdoor space'
p36
aS'hardwood'
p37
aS'fireplace'
p38
aS'simplex'
p39
aS'lowrise'
p40
aS'garage'
p41
aS'laundry room'
p42
aS'reduced fee'
p43
aS'furnished'
p44
aS'high ceilings'
p45
aS'private outdoor space'
p46
aS'publicoutdoor'
p47
aS'parking space'
p48
aS'live in super'
p49
aS'renovated'
p50
aS'pool'
p51
aS'on-site laundry'
p52
aS'laundry'
p53
aS'storage'
p54
aS'washer in unit'
p55
aS'dryer in unit'
p56
aS'stainless steel appliances'
p57
aS'concierge'
p58
aS'newly renovated'
p59
aS'light'
p60
aS'on-site garage'
p61
aS'patio'
p62
aS'granite kitchen'
p63
aS'gym/fitness'
p64
aS'bike room'
p65
aS'marble bath'
p66
aS'pets on approval'
p67
aS'walk in closet(s)'
p68
aS'valet'
p69
aS'subway'
p70
aS'garden'
p71
aS'residents lounge'
p72
aS'full-time doorman'
p73
aS'wifi access'
p74
aS'highrise'
p75
aS'short term allowed'
p76
aS'childrens playroom'
p77
aS'no pets'
p78
aS'duplex'
p79
aS'actual apt. photos'
p80
aS'view'
p81
aS'residents garden'
p82
aS'indoor pool'
p83
aS'valet parking'
p84
aS'sauna'
p85
aS'microwave'
p86
aS'shares ok'
p87
aS'basement storage'
p88
aS'brownstone'
p89
aS'hi rise'
p90
aS'in-unit washer/dryer'
p91
aS'concierge service'
p92
aS'storage room'
p93
aS'common backyard'
p94
aS'bike storage'
p95
aS'cable/satellite tv'
p96
aS'washer/dryer in unit'
p97
atbsS'name'
p98
NstRp99
.